target datalayout = "e-m:e-p270:32:32-p271:32:32-p272:64:64-i64:64-i128:128-f80:128-n8:16:32:64-S128"
target triple = "x86_64-pc-linux-gnu"

; Function Attrs: inlinehint nounwind uwtable
define internal void @_mi_memcpy(ptr noundef %0, ptr noundef %1, i64 noundef %2) #2 {
  %4 = alloca ptr, align 8
  %5 = alloca ptr, align 8
  %6 = alloca i64, align 8
  store ptr %0, ptr %4, align 8, !tbaa !3
  store ptr %1, ptr %5, align 8, !tbaa !3
  store i64 %2, ptr %6, align 8, !tbaa !7
  %7 = load ptr, ptr %4, align 8, !tbaa !3
  %8 = load ptr, ptr %5, align 8, !tbaa !3
  %9 = load i64, ptr %6, align 8, !tbaa !7
  call void @llvm.memcpy.p0.p0.i64(ptr align 1 %7, ptr align 1 %8, i64 %9, i1 false)
  ret void
}

; Function Attrs: nounwind uwtable
define hidden noalias ptr @mi_wcsdup(ptr noundef %0) #0 {
  %2 = alloca ptr, align 8
  %3 = alloca ptr, align 8
  %4 = alloca i64, align 8
  %5 = alloca i64, align 8
  %6 = alloca ptr, align 8
  store ptr %0, ptr %3, align 8, !tbaa !13
  %7 = load ptr, ptr %3, align 8, !tbaa !13
  %8 = icmp eq ptr %7, null
  br i1 %8, label %9, label %10

9:                                                ; preds = %1
  store ptr null, ptr %2, align 8
  br label %36

10:                                               ; preds = %1
  call void @llvm.lifetime.start.p0(i64 8, ptr %4) #9
  store i64 0, ptr %4, align 8, !tbaa !7
  br label %11

11:                                               ; preds = %19, %10
  %12 = load ptr, ptr %3, align 8, !tbaa !13
  %13 = load i64, ptr %4, align 8, !tbaa !7
  %14 = getelementptr inbounds nuw i16, ptr %12, i64 %13
  %15 = load i16, ptr %14, align 2, !tbaa !15
  %16 = zext i16 %15 to i32
  %17 = icmp ne i32 %16, 0
  br i1 %17, label %18, label %22

18:                                               ; preds = %11
  br label %19

19:                                               ; preds = %18
  %20 = load i64, ptr %4, align 8, !tbaa !7
  %21 = add i64 %20, 1
  store i64 %21, ptr %4, align 8, !tbaa !7
  br label %11, !llvm.loop !17

22:                                               ; preds = %11
  call void @llvm.lifetime.start.p0(i64 8, ptr %5) #9
  %23 = load i64, ptr %4, align 8, !tbaa !7
  %24 = add i64 %23, 1
  %25 = mul i64 %24, 2
  store i64 %25, ptr %5, align 8, !tbaa !7
  call void @llvm.lifetime.start.p0(i64 8, ptr %6) #9
  %26 = load i64, ptr %5, align 8, !tbaa !7
  %27 = call noalias ptr @mi_malloc(i64 noundef %26) #8
  store ptr %27, ptr %6, align 8, !tbaa !13
  %28 = load ptr, ptr %6, align 8, !tbaa !13
  %29 = icmp ne ptr %28, null
  br i1 %29, label %30, label %34

30:                                               ; preds = %22
  %31 = load ptr, ptr %6, align 8, !tbaa !13
  %32 = load ptr, ptr %3, align 8, !tbaa !13
  %33 = load i64, ptr %5, align 8, !tbaa !7
  call void @_mi_memcpy(ptr noundef %31, ptr noundef %32, i64 noundef %33) #8
  br label %34

34:                                               ; preds = %30, %22
  %35 = load ptr, ptr %6, align 8, !tbaa !13
  store ptr %35, ptr %2, align 8
  call void @llvm.lifetime.end.p0(i64 8, ptr %6) #9
  call void @llvm.lifetime.end.p0(i64 8, ptr %5) #9
  call void @llvm.lifetime.end.p0(i64 8, ptr %4) #9
  br label %36

36:                                               ; preds = %34, %9
  %37 = load ptr, ptr %2, align 8
  ret ptr %37
}